target datalayout = "e-m:e-p270:32:32-p271:32:32-p272:64:64-i64:64-i128:128-f80:128-n8:16:32:64-S128"
target triple = "x86_64-pc-linux-gnu"

%struct.stepd_step_rec_t = type { ptr, ptr, i32, %union.pthread_cond_t, %union.pthread_mutex_t, %struct.slurm_step_id_msg, i32, i32, i32, i32, i32, i32, ptr, ptr, i32, i32, ptr, i32, i32, i32, i32, i32, ptr, ptr, ptr, ptr, i32, i32, i64, i64, i16, i32, ptr, ptr, ptr, i32, ptr, i32, ptr, i32, ptr, i16, i32, i32, i32, ptr, i32, ptr, ptr, ptr, ptr, i32, i32, ptr, ptr, i8, i8, i8, i64, i32, ptr, ptr, ptr, ptr, ptr, ptr, ptr, ptr, ptr, ptr, i32, i32, ptr, i8, %union.pthread_cond_t, %union.pthread_mutex_t, i64, ptr, i32, i32, i32, ptr, i64, ptr, ptr, i8, ptr, i16, ptr, ptr, ptr, ptr, ptr, ptr, i64, ptr, i64, ptr, i16, i8, i16, i32, ptr, i16, ptr, ptr, i16, ptr, ptr, ptr, i8 }
%struct.slurm_step_id_msg = type { i64, i32, i32, i32 }
%union.pthread_cond_t = type { %struct.__pthread_cond_s }
%struct.__pthread_cond_s = type { %union.__atomic_wide_counter, %union.__atomic_wide_counter, [2 x i32], [2 x i32], i32, i32, [2 x i32] }
%union.__atomic_wide_counter = type { i64 }
%union.pthread_mutex_t = type { %struct.__pthread_mutex_s }
%struct.__pthread_mutex_s = type { i32, i32, i32, i32, i32, i16, i16, %struct.__pthread_internal_list }
%struct.__pthread_internal_list = type { ptr, ptr }

@.str.8 = private unnamed_addr constant [22 x i8] c"Closing debug channel\00", align 1
@.str.9 = private unnamed_addr constant [10 x i8] c"/dev/null\00", align 1
@.str.10 = private unnamed_addr constant [29 x i8] c"Could not open /dev/null: %m\00", align 1
@.str.11 = private unnamed_addr constant [36 x i8] c"Unable to dup /dev/null onto stderr\00", align 1

; Function Attrs: nounwind uwtable
define dso_local void @io_close_all(ptr noundef %0) #0 {
  %2 = alloca ptr, align 8
  %3 = alloca i32, align 4
  store ptr %0, ptr %2, align 8
  call void @llvm.lifetime.start.p0(i64 4, ptr %3) #10
  br label %4

4:                                                ; preds = %1
  br label %5

5:                                                ; preds = %4
  %6 = call i32 @get_log_level()
  %7 = icmp sge i32 %6, 5
  br i1 %7, label %8, label %9

8:                                                ; preds = %5
  call void (i32, ptr, ...) @log_var(i32 noundef 5, ptr noundef @.str.8)
  br label %9

9:                                                ; preds = %8, %5
  br label %10

10:                                               ; preds = %9
  br label %11

11:                                               ; preds = %10
  br label %12

12:                                               ; preds = %11
  br label %13

13:                                               ; preds = %12
  %14 = call i32 (ptr, i32, ...) @open(ptr noundef @.str.9, i32 noundef 2)
  store i32 %14, ptr %3, align 4
  %15 = icmp slt i32 %14, 0
  br i1 %15, label %16, label %18

16:                                               ; preds = %13
  %17 = call i32 (ptr, ...) @error(ptr noundef @.str.10)
  br label %27

18:                                               ; preds = %13
  %19 = load i32, ptr %3, align 4
  %20 = call i32 @dup2(i32 noundef %19, i32 noundef 2) #10
  %21 = icmp slt i32 %20, 0
  br i1 %21, label %22, label %24

22:                                               ; preds = %18
  %23 = call i32 (ptr, ...) @error(ptr noundef @.str.11)
  br label %24

24:                                               ; preds = %22, %18
  %25 = load i32, ptr %3, align 4
  %26 = call i32 @close(i32 noundef %25)
  br label %27

27:                                               ; preds = %24, %16
  %28 = load ptr, ptr %2, align 8
  %29 = getelementptr inbounds nuw %struct.stepd_step_rec_t, ptr %28, i32 0, i32 63
  %30 = load ptr, ptr %29, align 8
  %31 = call i32 @eio_signal_shutdown(ptr noundef %30)
  call void @llvm.lifetime.end.p0(i64 4, ptr %3) #10
  ret void
}