; Function Attrs: nounwind uwtable
define dso_local void @io_close_all(ptr noundef readonly captures(none) %0) local_unnamed_addr #0 {
  %2 = tail call i32 @get_log_level() #11
  %3 = icmp sgt i32 %2, 4
  br i1 %3, label %4, label %5

4:                                                ; preds = %1
  tail call void (i32, ptr, ...) @log_var(i32 noundef 5, ptr noundef nonnull @.str.8) #11
  br label %5

5:                                                ; preds = %4, %1
  %6 = tail call i32 (ptr, i32, ...) @open(ptr noundef nonnull @.str.9, i32 noundef 2) #11
  %7 = icmp slt i32 %6, 0
  br i1 %7, label %8, label %10

8:                                                ; preds = %5
  %9 = tail call i32 (ptr, ...) @error(ptr noundef nonnull @.str.10) #11
  br label %17

10:                                               ; preds = %5
  %11 = tail call i32 @dup2(i32 noundef %6, i32 noundef 2) #11
  %12 = icmp slt i32 %11, 0
  br i1 %12, label %13, label %15

13:                                               ; preds = %10
  %14 = tail call i32 (ptr, ...) @error(ptr noundef nonnull @.str.11) #11
  br label %15

15:                                               ; preds = %13, %10
  %16 = tail call i32 @close(i32 noundef %6) #11
  br label %17

17:                                               ; preds = %15, %8
  %18 = getelementptr inbounds nuw i8, ptr %0, i64 488
  %19 = load ptr, ptr %18, align 8
  %20 = tail call i32 @eio_signal_shutdown(ptr noundef %19) #11
  ret void
}